target datalayout = "e-m:e-p270:32:32-p271:32:32-p272:64:64-i64:64-i128:128-f80:128-n8:16:32:64-S128"
target triple = "x86_64-pc-linux-gnu"

%struct.lua_State = type { %struct.GCRef, i8, i8, i8, i8, %struct.MRef, %struct.GCRef, ptr, ptr, %struct.MRef, %struct.MRef, %struct.GCRef, %struct.GCRef, ptr, i32 }
%struct.MRef = type { i64 }
%struct.GCRef = type { i64 }
%union.TValue = type { i64 }
%struct.CTState = type { ptr, i32, i32, ptr, ptr, ptr, %struct.CCallback, [128 x i16] }
%struct.CCallback = type { [8 x %union.FPRCBArg], [8 x i64], ptr, ptr, ptr, i32, i32, i32 }
%union.FPRCBArg = type { double }
%struct.global_State = type { ptr, ptr, %struct.GCState, %struct.GCstr, i8, i8, i8, i8, %struct.StrInternState, i32, %struct.GCRef, %struct.SBuf, %union.TValue, %union.TValue, %struct.Node, %union.TValue, %struct.GCupval, i32, i32, ptr, ptr, ptr, i32, i32, %struct.GCRef, %struct.MRef, %struct.MRef, %struct.PRNGState, [39 x %struct.GCRef] }
%struct.GCState = type { i64, i64, i8, i8, i8, i8, i32, %struct.GCRef, %struct.MRef, %struct.GCRef, %struct.GCRef, %struct.GCRef, %struct.GCRef, i64, i64, i32, i32, %struct.MRef }
%struct.GCstr = type { %struct.GCRef, i8, i8, i8, i8, i32, i32, i32 }
%struct.StrInternState = type { ptr, i32, i32, i32, i8, i8, i8, i8, i64 }
%struct.SBuf = type { ptr, ptr, ptr, %struct.MRef }
%struct.Node = type { %union.TValue, %union.TValue, %struct.MRef }
%struct.GCupval = type { %struct.GCRef, i8, i8, i8, i8, %union.anon, %struct.MRef, i32 }
%union.anon = type { %struct.anon.1 }
%struct.anon.1 = type { %struct.GCRef, %struct.GCRef }
%struct.PRNGState = type { [4 x i64] }
%struct.CType = type { i32, i32, i16, i16, %struct.GCRef }

@.str.2 = private unnamed_addr constant [24 x i8] c"store to dead GC object\00", align 1

; Function Attrs: alwaysinline nounwind uwtable
define internal void @checklivetv(ptr noundef %0, ptr noundef %1, ptr noundef %2) #3 {
  %4 = alloca ptr, align 8
  %5 = alloca ptr, align 8
  %6 = alloca ptr, align 8
  store ptr %0, ptr %4, align 8, !tbaa !4
  store ptr %1, ptr %5, align 8, !tbaa !30
  store ptr %2, ptr %6, align 8, !tbaa !35
  ret void
}

; Function Attrs: alwaysinline nounwind uwtable
define internal void @setgcVraw(ptr noundef %0, ptr noundef %1, i32 noundef %2) #3 {
  %4 = alloca ptr, align 8
  %5 = alloca ptr, align 8
  %6 = alloca i32, align 4
  store ptr %0, ptr %4, align 8, !tbaa !30
  store ptr %1, ptr %5, align 8, !tbaa !32
  store i32 %2, ptr %6, align 4, !tbaa !34
  %7 = load ptr, ptr %5, align 8, !tbaa !32
  %8 = ptrtoint ptr %7 to i64
  %9 = load i32, ptr %6, align 4, !tbaa !34
  %10 = zext i32 %9 to i64
  %11 = shl i64 %10, 47
  %12 = or i64 %8, %11
  %13 = load ptr, ptr %4, align 8, !tbaa !30
  %14 = getelementptr inbounds nuw %struct.GCRef, ptr %13, i32 0, i32 0
  store i64 %12, ptr %14, align 8, !tbaa !26
  ret void
}

; Function Attrs: alwaysinline nounwind uwtable
define internal void @setgcV(ptr noundef %0, ptr noundef %1, ptr noundef %2, i32 noundef %3) #3 {
  %5 = alloca ptr, align 8
  %6 = alloca ptr, align 8
  %7 = alloca ptr, align 8
  %8 = alloca i32, align 4
  store ptr %0, ptr %5, align 8, !tbaa !4
  store ptr %1, ptr %6, align 8, !tbaa !30
  store ptr %2, ptr %7, align 8, !tbaa !32
  store i32 %3, ptr %8, align 4, !tbaa !34
  %9 = load ptr, ptr %6, align 8, !tbaa !30
  %10 = load ptr, ptr %7, align 8, !tbaa !32
  %11 = load i32, ptr %8, align 4, !tbaa !34
  call void @setgcVraw(ptr noundef %9, ptr noundef %10, i32 noundef %11)
  %12 = load ptr, ptr %5, align 8, !tbaa !4
  %13 = load ptr, ptr %6, align 8, !tbaa !30
  call void @checklivetv(ptr noundef %12, ptr noundef %13, ptr noundef @.str.2)
  ret void
}

; Function Attrs: alwaysinline nounwind uwtable
define internal i32 @ctype_check(ptr noundef %0, i32 noundef %1) #3 {
  %3 = alloca ptr, align 8
  %4 = alloca i32, align 4
  store ptr %0, ptr %3, align 8, !tbaa !9
  store i32 %1, ptr %4, align 4, !tbaa !34
  %5 = load i32, ptr %4, align 4, !tbaa !34
  ret i32 %5
}

; Function Attrs: alwaysinline nounwind uwtable
define internal void @setstrV(ptr noundef %0, ptr noundef %1, ptr noundef %2) #3 {
  %4 = alloca ptr, align 8
  %5 = alloca ptr, align 8
  %6 = alloca ptr, align 8
  store ptr %0, ptr %4, align 8, !tbaa !4
  store ptr %1, ptr %5, align 8, !tbaa !30
  store ptr %2, ptr %6, align 8, !tbaa !69
  %7 = load ptr, ptr %4, align 8, !tbaa !4
  %8 = load ptr, ptr %5, align 8, !tbaa !30
  %9 = load ptr, ptr %6, align 8, !tbaa !69
  call void @setgcV(ptr noundef %7, ptr noundef %8, ptr noundef %9, i32 noundef -5)
  ret void
}

; Function Attrs: alwaysinline nounwind uwtable
define internal ptr @ctype_get(ptr noundef %0, i32 noundef %1) #3 {
  %3 = alloca ptr, align 8
  %4 = alloca i32, align 4
  store ptr %0, ptr %3, align 8, !tbaa !9
  store i32 %1, ptr %4, align 4, !tbaa !34
  %5 = load ptr, ptr %3, align 8, !tbaa !9
  %6 = getelementptr inbounds nuw %struct.CTState, ptr %5, i32 0, i32 0
  %7 = load ptr, ptr %6, align 8, !tbaa !60
  %8 = load ptr, ptr %3, align 8, !tbaa !9
  %9 = load i32, ptr %4, align 4, !tbaa !34
  %10 = call i32 @ctype_check(ptr noundef %8, i32 noundef %9)
  %11 = zext i32 %10 to i64
  %12 = getelementptr inbounds nuw %struct.CType, ptr %7, i64 %11
  ret ptr %12
}

; Function Attrs: nounwind uwtable
define internal i32 @ffi_checkint(ptr noundef %0, i32 noundef %1) #0 {
  %3 = alloca ptr, align 8
  %4 = alloca i32, align 4
  %5 = alloca ptr, align 8
  %6 = alloca ptr, align 8
  %7 = alloca i32, align 4
  store ptr %0, ptr %3, align 8, !tbaa !4
  store i32 %1, ptr %4, align 4, !tbaa !34
  call void @llvm.lifetime.start.p0(i64 8, ptr %5) #10
  %8 = load ptr, ptr %3, align 8, !tbaa !4
  %9 = call ptr @ctype_cts(ptr noundef %8)
  store ptr %9, ptr %5, align 8, !tbaa !9
  call void @llvm.lifetime.start.p0(i64 8, ptr %6) #10
  %10 = load ptr, ptr %3, align 8, !tbaa !4
  %11 = getelementptr inbounds nuw %struct.lua_State, ptr %10, i32 0, i32 7
  %12 = load ptr, ptr %11, align 8, !tbaa !37
  %13 = load i32, ptr %4, align 4, !tbaa !34
  %14 = sext i32 %13 to i64
  %15 = getelementptr inbounds %union.TValue, ptr %12, i64 %14
  %16 = getelementptr inbounds %union.TValue, ptr %15, i64 -1
  store ptr %16, ptr %6, align 8, !tbaa !30
  call void @llvm.lifetime.start.p0(i64 4, ptr %7) #10
  %17 = load ptr, ptr %6, align 8, !tbaa !30
  %18 = load ptr, ptr %3, align 8, !tbaa !4
  %19 = getelementptr inbounds nuw %struct.lua_State, ptr %18, i32 0, i32 8
  %20 = load ptr, ptr %19, align 8, !tbaa !11
  %21 = icmp uge ptr %17, %20
  br i1 %21, label %22, label %25

22:                                               ; preds = %2
  %23 = load ptr, ptr %3, align 8, !tbaa !4
  %24 = load i32, ptr %4, align 4, !tbaa !34
  call void @lj_err_arg(ptr noundef %23, i32 noundef %24, i32 noundef 551) #11
  unreachable

25:                                               ; preds = %2
  %26 = load ptr, ptr %5, align 8, !tbaa !9
  %27 = load ptr, ptr %5, align 8, !tbaa !9
  %28 = call ptr @ctype_get(ptr noundef %27, i32 noundef 9)
  %29 = load ptr, ptr %6, align 8, !tbaa !30
  %30 = load i32, ptr %4, align 4, !tbaa !34
  %31 = shl i32 %30, 8
  call void @lj_cconv_ct_tv(ptr noundef %26, ptr noundef %28, ptr noundef %7, ptr noundef %29, i32 noundef %31)
  %32 = load i32, ptr %7, align 4, !tbaa !34
  call void @llvm.lifetime.end.p0(i64 4, ptr %7) #10
  call void @llvm.lifetime.end.p0(i64 8, ptr %6) #10
  call void @llvm.lifetime.end.p0(i64 8, ptr %5) #10
  ret i32 %32
}

; Function Attrs: alwaysinline nounwind uwtable
define internal ptr @ctype_cts(ptr noundef %0) #3 {
  %2 = alloca ptr, align 8
  %3 = alloca ptr, align 8
  store ptr %0, ptr %2, align 8, !tbaa !4
  call void @llvm.lifetime.start.p0(i64 8, ptr %3) #10
  %4 = load ptr, ptr %2, align 8, !tbaa !4
  %5 = getelementptr inbounds nuw %struct.lua_State, ptr %4, i32 0, i32 5
  %6 = getelementptr inbounds nuw %struct.MRef, ptr %5, i32 0, i32 0
  %7 = load i64, ptr %6, align 8, !tbaa !27
  %8 = inttoptr i64 %7 to ptr
  %9 = getelementptr inbounds nuw %struct.global_State, ptr %8, i32 0, i32 26
  %10 = getelementptr inbounds nuw %struct.MRef, ptr %9, i32 0, i32 0
  %11 = load i64, ptr %10, align 8, !tbaa !61
  %12 = inttoptr i64 %11 to ptr
  store ptr %12, ptr %3, align 8, !tbaa !9
  %13 = load ptr, ptr %2, align 8, !tbaa !4
  %14 = load ptr, ptr %3, align 8, !tbaa !9
  %15 = getelementptr inbounds nuw %struct.CTState, ptr %14, i32 0, i32 3
  store ptr %13, ptr %15, align 8, !tbaa !62
  %16 = load ptr, ptr %3, align 8, !tbaa !9
  call void @llvm.lifetime.end.p0(i64 8, ptr %3) #10
  ret ptr %16
}

; Function Attrs: nounwind uwtable
define internal i32 @lj_cf_ffi_string(ptr noundef %0) #0 {
  %2 = alloca ptr, align 8
  %3 = alloca ptr, align 8
  %4 = alloca ptr, align 8
  %5 = alloca ptr, align 8
  %6 = alloca i64, align 8
  store ptr %0, ptr %2, align 8, !tbaa !4
  call void @llvm.lifetime.start.p0(i64 8, ptr %3) #10
  %7 = load ptr, ptr %2, align 8, !tbaa !4
  %8 = call ptr @ctype_cts(ptr noundef %7)
  store ptr %8, ptr %3, align 8, !tbaa !9
  call void @llvm.lifetime.start.p0(i64 8, ptr %4) #10
  %9 = load ptr, ptr %2, align 8, !tbaa !4
  %10 = call ptr @lj_lib_checkany(ptr noundef %9, i32 noundef 1)
  store ptr %10, ptr %4, align 8, !tbaa !30
  call void @llvm.lifetime.start.p0(i64 8, ptr %5) #10
  call void @llvm.lifetime.start.p0(i64 8, ptr %6) #10
  %11 = load ptr, ptr %4, align 8, !tbaa !30
  %12 = getelementptr inbounds %union.TValue, ptr %11, i64 1
  %13 = load ptr, ptr %2, align 8, !tbaa !4
  %14 = getelementptr inbounds nuw %struct.lua_State, ptr %13, i32 0, i32 8
  %15 = load ptr, ptr %14, align 8, !tbaa !11
  %16 = icmp ult ptr %12, %15
  br i1 %16, label %17, label %30

17:                                               ; preds = %1
  %18 = load ptr, ptr %4, align 8, !tbaa !30
  %19 = getelementptr inbounds %union.TValue, ptr %18, i64 1
  %20 = load i64, ptr %19, align 8, !tbaa !26
  %21 = icmp eq i64 %20, -1
  br i1 %21, label %30, label %22

22:                                               ; preds = %17
  %23 = load ptr, ptr %2, align 8, !tbaa !4
  %24 = call i32 @ffi_checkint(ptr noundef %23, i32 noundef 2)
  %25 = sext i32 %24 to i64
  store i64 %25, ptr %6, align 8, !tbaa !59
  %26 = load ptr, ptr %3, align 8, !tbaa !9
  %27 = load ptr, ptr %3, align 8, !tbaa !9
  %28 = call ptr @ctype_get(ptr noundef %27, i32 noundef 18)
  %29 = load ptr, ptr %4, align 8, !tbaa !30
  call void @lj_cconv_ct_tv(ptr noundef %26, ptr noundef %28, ptr noundef %5, ptr noundef %29, i32 noundef 256)
  br label %37

30:                                               ; preds = %17, %1
  %31 = load ptr, ptr %3, align 8, !tbaa !9
  %32 = load ptr, ptr %3, align 8, !tbaa !9
  %33 = call ptr @ctype_get(ptr noundef %32, i32 noundef 19)
  %34 = load ptr, ptr %4, align 8, !tbaa !30
  call void @lj_cconv_ct_tv(ptr noundef %31, ptr noundef %33, ptr noundef %5, ptr noundef %34, i32 noundef 256)
  %35 = load ptr, ptr %5, align 8, !tbaa !35
  %36 = call i64 @strlen(ptr noundef %35) #13
  store i64 %36, ptr %6, align 8, !tbaa !59
  br label %37

37:                                               ; preds = %30, %22
  %38 = load ptr, ptr %4, align 8, !tbaa !30
  %39 = getelementptr inbounds %union.TValue, ptr %38, i64 1
  %40 = load ptr, ptr %2, align 8, !tbaa !4
  %41 = getelementptr inbounds nuw %struct.lua_State, ptr %40, i32 0, i32 8
  store ptr %39, ptr %41, align 8, !tbaa !11
  %42 = load ptr, ptr %2, align 8, !tbaa !4
  %43 = load ptr, ptr %4, align 8, !tbaa !30
  %44 = load ptr, ptr %2, align 8, !tbaa !4
  %45 = load ptr, ptr %5, align 8, !tbaa !35
  %46 = load i64, ptr %6, align 8, !tbaa !59
  %47 = call ptr @lj_str_new(ptr noundef %44, ptr noundef %45, i64 noundef %46)
  call void @setstrV(ptr noundef %42, ptr noundef %43, ptr noundef %47)
  %48 = load ptr, ptr %2, align 8, !tbaa !4
  %49 = getelementptr inbounds nuw %struct.lua_State, ptr %48, i32 0, i32 5
  %50 = getelementptr inbounds nuw %struct.MRef, ptr %49, i32 0, i32 0
  %51 = load i64, ptr %50, align 8, !tbaa !27
  %52 = inttoptr i64 %51 to ptr
  %53 = getelementptr inbounds nuw %struct.global_State, ptr %52, i32 0, i32 2
  %54 = getelementptr inbounds nuw %struct.GCState, ptr %53, i32 0, i32 0
  %55 = load i64, ptr %54, align 8, !tbaa !39
  %56 = load ptr, ptr %2, align 8, !tbaa !4
  %57 = getelementptr inbounds nuw %struct.lua_State, ptr %56, i32 0, i32 5
  %58 = getelementptr inbounds nuw %struct.MRef, ptr %57, i32 0, i32 0
  %59 = load i64, ptr %58, align 8, !tbaa !27
  %60 = inttoptr i64 %59 to ptr
  %61 = getelementptr inbounds nuw %struct.global_State, ptr %60, i32 0, i32 2
  %62 = getelementptr inbounds nuw %struct.GCState, ptr %61, i32 0, i32 1
  %63 = load i64, ptr %62, align 8, !tbaa !49
  %64 = icmp uge i64 %55, %63
  %65 = xor i1 %64, true
  %66 = xor i1 %65, true
  %67 = zext i1 %66 to i32
  %68 = sext i32 %67 to i64
  %69 = call i64 @llvm.expect.i64(i64 %68, i64 0)
  %70 = icmp ne i64 %69, 0
  br i1 %70, label %71, label %74

71:                                               ; preds = %37
  %72 = load ptr, ptr %2, align 8, !tbaa !4
  %73 = call i32 @lj_gc_step(ptr noundef %72)
  br label %74

74:                                               ; preds = %71, %37
  call void @llvm.lifetime.end.p0(i64 8, ptr %6) #10
  call void @llvm.lifetime.end.p0(i64 8, ptr %5) #10
  call void @llvm.lifetime.end.p0(i64 8, ptr %4) #10
  call void @llvm.lifetime.end.p0(i64 8, ptr %3) #10
  ret i32 1
}