; Function Attrs: nounwind uwtable
define internal noundef i32 @lj_cf_ffi_string(ptr noundef %0) #0 {
  %2 = alloca i32, align 4
  %3 = alloca ptr, align 8
  %4 = getelementptr inbounds nuw i8, ptr %0, i64 16
  %5 = load i64, ptr %4, align 8, !tbaa !24
  %6 = inttoptr i64 %5 to ptr
  %7 = getelementptr inbounds nuw i8, ptr %6, i64 384
  %8 = load i64, ptr %7, align 8, !tbaa !41
  %9 = inttoptr i64 %8 to ptr
  %10 = getelementptr inbounds nuw i8, ptr %9, i64 16
  store ptr %0, ptr %10, align 8, !tbaa !42
  %11 = tail call ptr @lj_lib_checkany(ptr noundef %0, i32 noundef 1) #9
  call void @llvm.lifetime.start.p0(i64 8, ptr nonnull %3) #9
  %12 = getelementptr inbounds nuw i8, ptr %11, i64 8
  %13 = getelementptr inbounds nuw i8, ptr %0, i64 40
  %14 = load ptr, ptr %13, align 8, !tbaa !4
  %15 = icmp ult ptr %12, %14
  br i1 %15, label %16, label %36

16:                                               ; preds = %1
  %17 = load i64, ptr %12, align 8, !tbaa !23
  %18 = icmp eq i64 %17, -1
  br i1 %18, label %36, label %19

19:                                               ; preds = %16
  %20 = load i64, ptr %4, align 8, !tbaa !24
  %21 = inttoptr i64 %20 to ptr
  %22 = getelementptr inbounds nuw i8, ptr %21, i64 384
  %23 = load i64, ptr %22, align 8, !tbaa !41
  %24 = inttoptr i64 %23 to ptr
  %25 = getelementptr inbounds nuw i8, ptr %24, i64 16
  store ptr %0, ptr %25, align 8, !tbaa !42
  %26 = getelementptr inbounds nuw i8, ptr %0, i64 32
  %27 = load ptr, ptr %26, align 8, !tbaa !44
  %28 = getelementptr inbounds nuw i8, ptr %27, i64 8
  call void @llvm.lifetime.start.p0(i64 4, ptr nonnull %2) #9
  %.not.i = icmp ult ptr %28, %14
  br i1 %.not.i, label %ffi_checkint.exit, label %29

29:                                               ; preds = %19
  tail call void @lj_err_arg(ptr noundef nonnull %0, i32 noundef 2, i32 noundef 551) #10
  unreachable

ffi_checkint.exit:                                ; preds = %19
  %30 = load ptr, ptr %24, align 8, !tbaa !51
  %31 = getelementptr inbounds nuw i8, ptr %30, i64 216
  call void @lj_cconv_ct_tv(ptr noundef nonnull %24, ptr noundef nonnull %31, ptr noundef nonnull %2, ptr noundef nonnull %28, i32 noundef 512) #9
  %32 = load i32, ptr %2, align 4, !tbaa !43
  call void @llvm.lifetime.end.p0(i64 4, ptr nonnull %2) #9
  %33 = sext i32 %32 to i64
  %34 = load ptr, ptr %9, align 8, !tbaa !51
  %35 = getelementptr inbounds nuw i8, ptr %34, i64 432
  call void @lj_cconv_ct_tv(ptr noundef nonnull %9, ptr noundef nonnull %35, ptr noundef nonnull %3, ptr noundef nonnull %11, i32 noundef 256) #9
  %.pre = load ptr, ptr %3, align 8, !tbaa !45
  br label %41

36:                                               ; preds = %16, %1
  %37 = load ptr, ptr %9, align 8, !tbaa !51
  %38 = getelementptr inbounds nuw i8, ptr %37, i64 456
  call void @lj_cconv_ct_tv(ptr noundef nonnull %9, ptr noundef nonnull %38, ptr noundef nonnull %3, ptr noundef %11, i32 noundef 256) #9
  %39 = load ptr, ptr %3, align 8, !tbaa !45
  %40 = call i64 @strlen(ptr noundef nonnull dereferenceable(1) %39) #12
  br label %41

41:                                               ; preds = %36, %ffi_checkint.exit
  %42 = phi ptr [ %39, %36 ], [ %.pre, %ffi_checkint.exit ]
  %.0 = phi i64 [ %40, %36 ], [ %33, %ffi_checkint.exit ]
  store ptr %12, ptr %13, align 8, !tbaa !4
  %43 = call ptr @lj_str_new(ptr noundef nonnull %0, ptr noundef %42, i64 noundef %.0) #9
  %44 = ptrtoint ptr %43 to i64
  %45 = or i64 %44, -703687441776640
  store i64 %45, ptr %11, align 8, !tbaa !23
  %46 = load i64, ptr %4, align 8, !tbaa !24
  %47 = inttoptr i64 %46 to ptr
  %48 = getelementptr inbounds nuw i8, ptr %47, i64 16
  %49 = load i64, ptr %48, align 8, !tbaa !46
  %50 = getelementptr inbounds nuw i8, ptr %47, i64 24
  %51 = load i64, ptr %50, align 8, !tbaa !47
  %.not = icmp ult i64 %49, %51
  br i1 %.not, label %54, label %52, !prof !27

52:                                               ; preds = %41
  %53 = call i32 @lj_gc_step(ptr noundef nonnull %0) #9
  br label %54

54:                                               ; preds = %52, %41
  call void @llvm.lifetime.end.p0(i64 8, ptr nonnull %3) #9
  ret i32 1
}